; Function Attrs: nofree norecurse nosync nounwind memory(readwrite, argmem: none, inaccessiblemem: none) uwtable
define internal void @crc32c_init_sw_big() #4 {
  br label %1

1:                                                ; preds = %0, %1
  %indvars.iv = phi i64 [ 0, %0 ], [ %indvars.iv.next, %1 ]
  %2 = trunc nuw nsw i64 %indvars.iv to i32
  %3 = and i32 %2, 1
  %.not = icmp eq i32 %3, 0
  %4 = lshr i32 %2, 1
  %5 = xor i32 %4, -2097792136
  %6 = select i1 %.not, i32 %4, i32 %5
  %7 = and i32 %6, 1
  %.not44 = icmp eq i32 %7, 0
  %8 = lshr i32 %6, 1
  %9 = xor i32 %8, -2097792136
  %10 = select i1 %.not44, i32 %8, i32 %9
  %11 = and i32 %10, 1
  %.not45 = icmp eq i32 %11, 0
  %12 = lshr i32 %10, 1
  %13 = xor i32 %12, -2097792136
  %14 = select i1 %.not45, i32 %12, i32 %13
  %15 = and i32 %14, 1
  %.not46 = icmp eq i32 %15, 0
  %16 = lshr i32 %14, 1
  %17 = xor i32 %16, -2097792136
  %18 = select i1 %.not46, i32 %16, i32 %17
  %19 = and i32 %18, 1
  %.not47 = icmp eq i32 %19, 0
  %20 = lshr i32 %18, 1
  %21 = xor i32 %20, -2097792136
  %22 = select i1 %.not47, i32 %20, i32 %21
  %23 = and i32 %22, 1
  %.not48 = icmp eq i32 %23, 0
  %24 = lshr i32 %22, 1
  %25 = xor i32 %24, -2097792136
  %26 = select i1 %.not48, i32 %24, i32 %25
  %27 = and i32 %26, 1
  %.not49 = icmp eq i32 %27, 0
  %28 = lshr i32 %26, 1
  %29 = xor i32 %28, -2097792136
  %30 = select i1 %.not49, i32 %28, i32 %29
  %31 = and i32 %30, 1
  %.not50 = icmp eq i32 %31, 0
  %32 = lshr i32 %30, 1
  %33 = xor i32 %32, -2097792136
  %34 = select i1 %.not50, i32 %32, i32 %33
  %35 = getelementptr inbounds nuw [256 x i32], ptr @crc32c_table_big_byte, i64 0, i64 %indvars.iv
  store i32 %34, ptr %35, align 4, !tbaa !14
  %indvars.iv.next = add nuw nsw i64 %indvars.iv, 1
  %exitcond.not = icmp eq i64 %indvars.iv.next, 256
  br i1 %exitcond.not, label %.preheader, label %1, !llvm.loop !36

36:                                               ; preds = %42
  ret void

.preheader:                                       ; preds = %1, %42
  %indvars.iv60 = phi i64 [ %indvars.iv.next61, %42 ], [ 0, %1 ]
  %37 = getelementptr inbounds nuw [256 x i32], ptr @crc32c_table_big_byte, i64 0, i64 %indvars.iv60
  %38 = load i32, ptr %37, align 4, !tbaa !14
  %39 = zext i32 %38 to i64
  %40 = tail call i64 @llvm.bswap.i64(i64 %39)
  %41 = getelementptr inbounds nuw [256 x i64], ptr @crc32c_table_big, i64 0, i64 %indvars.iv60
  store i64 %40, ptr %41, align 8, !tbaa !26
  br label %43

42:                                               ; preds = %43
  %indvars.iv.next61 = add nuw nsw i64 %indvars.iv60, 1
  %exitcond63.not = icmp eq i64 %indvars.iv.next61, 256
  br i1 %exitcond63.not, label %36, label %.preheader, !llvm.loop !37

43:                                               ; preds = %.preheader, %43
  %indvars.iv56 = phi i64 [ 1, %.preheader ], [ %indvars.iv.next57, %43 ]
  %.04152 = phi i32 [ %38, %.preheader ], [ %49, %43 ]
  %44 = and i32 %.04152, 255
  %45 = zext nneg i32 %44 to i64
  %46 = getelementptr inbounds nuw [256 x i32], ptr @crc32c_table_big_byte, i64 0, i64 %45
  %47 = load i32, ptr %46, align 4, !tbaa !14
  %48 = lshr i32 %.04152, 8
  %49 = xor i32 %47, %48
  %50 = zext i32 %49 to i64
  %51 = tail call i64 @llvm.bswap.i64(i64 %50)
  %52 = getelementptr inbounds nuw [8 x [256 x i64]], ptr @crc32c_table_big, i64 0, i64 %indvars.iv56, i64 %indvars.iv60
  store i64 %51, ptr %52, align 8, !tbaa !26
  %indvars.iv.next57 = add nuw nsw i64 %indvars.iv56, 1
  %exitcond59.not = icmp eq i64 %indvars.iv.next57, 8
  br i1 %exitcond59.not, label %42, label %43, !llvm.loop !38
}